Certificate:
    Data:
        Version: 3 (0x2)
        Serial Number: 1 (0x1)
    Signature Algorithm: sha1WithRSAEncryption
        Issuer: C=DE, ST=Germany, L=Hamburg, O=HAWTest/emailAddress=testmail@test.de
        Validity
            Not Before: Dec  1 09:23:48 2013 GMT
            Not After : Nov 29 09:23:48 2023 GMT
        Subject: C=DE, ST=Germany, L=Hamburg, O=HAWTest, CN=Sergej/emailAddress=seff@werf.de
        Subject Public Key Info:
            Public Key Algorithm: rsaEncryption
                Public-Key: (4096 bit)
                Modulus:
                    00:e5:61:7e:fd:8d:09:86:15:2f:ef:b5:45:1a:5d:
                    63:2a:17:92:77:00:86:4c:73:86:5e:9c:69:b3:54:
                    e5:63:11:fc:1d:f1:2a:a0:bc:1c:c9:41:91:0d:fc:
                    0f:4c:dd:48:09:a2:17:6c:ae:ca:43:9e:ba:ce:35:
                    27:05:ba:c1:44:44:4a:db:c5:aa:7f:8e:58:45:fc:
                    1a:e8:71:80:19:9c:e5:e3:09:f9:c0:67:5a:2f:92:
                    f8:3f:f6:85:29:a9:d9:3b:f6:d8:a5:37:b9:9d:a2:
                    21:38:27:3b:b6:c3:15:53:d7:87:74:12:5b:22:ac:
                    64:b3:72:a8:de:f1:91:61:4a:83:e7:40:86:b7:78:
                    ae:23:d3:17:ec:e9:37:1c:2e:90:9a:e2:2f:ce:0c:
                    32:ba:38:be:53:f1:b4:91:63:c8:5b:bd:6c:da:0f:
                    ff:6d:83:4b:42:b3:b4:a7:4a:ab:b8:e0:5e:71:1b:
                    8f:ad:a5:3c:d5:f7:10:c8:f0:50:ef:0b:57:c3:6c:
                    e4:19:23:46:dc:25:f8:6a:ef:94:1b:7e:45:fb:26:
                    90:81:8e:56:65:5d:4d:59:d7:a1:54:43:48:87:1c:
                    6f:1f:b9:77:e5:ae:c2:56:d1:16:32:e7:6a:1a:ce:
                    7d:e4:e3:99:e0:02:14:46:be:05:92:25:77:28:6d:
                    38:5a:4b:01:cb:65:6d:0e:ae:e7:97:73:cd:c0:a4:
                    c8:39:54:6e:56:e3:48:28:bf:e4:b8:bb:68:c1:69:
                    87:f9:13:4f:4b:ba:0d:71:3f:08:e2:ff:d5:3e:f4:
                    f4:80:93:65:3a:98:3d:08:55:cb:45:f5:55:0f:2e:
                    82:0b:10:6b:75:0b:2b:35:c8:42:9f:25:d7:a9:f4:
                    2b:46:a2:bb:37:5f:bc:27:d3:ee:bb:2d:9a:90:c3:
                    7b:69:57:0a:41:92:79:a0:bb:58:ad:bd:f9:09:a0:
                    85:b9:39:1f:35:09:b5:84:21:36:2c:22:f3:a3:92:
                    bf:e0:df:b0:ca:45:b7:62:de:60:47:bb:3d:c8:4e:
                    a7:cc:97:56:52:a4:52:e5:5c:68:a2:db:6c:ab:01:
                    4b:5e:67:8c:74:f7:85:9d:02:89:6e:2c:36:3f:6b:
                    8e:cd:c4:15:a0:49:a3:bf:53:07:9d:a2:5d:ea:19:
                    d6:43:d9:d9:dc:05:e6:17:09:73:7e:fc:a1:46:ef:
                    37:c8:6c:cf:90:df:69:da:08:b2:df:a8:4d:e2:d0:
                    8b:78:d3:74:a6:b7:91:fa:67:b9:ff:e6:2a:d3:85:
                    1e:e2:04:03:7e:d3:0c:7e:fe:68:49:59:ca:89:6a:
                    c0:a4:9b:a4:0b:9d:5c:d3:cd:ce:c5:04:49:2d:6a:
                    77:93:e5
                Exponent: 65537 (0x10001)
        X509v3 extensions:
            X509v3 Basic Constraints: 
                CA:FALSE
            X509v3 Subject Key Identifier: 
                E5:A7:8D:43:CC:61:FC:35:EA:72:81:74:D9:5D:15:A4:36:B2:85:04
            X509v3 Authority Key Identifier: 
                keyid:4D:35:77:F6:75:04:22:48:2B:E7:C6:05:E8:7A:76:CD:D8:65:3A:B1
                DirName:/C=DE/ST=Germany/L=Hamburg/O=HAWTest/emailAddress=testmail@test.de
                serial:A8:C8:24:E6:F1:E4:45:0E

            Netscape Comment: 
                OpenSSL Generated Certificate
            X509v3 Subject Alternative Name: 
                email:seff@werf.de
            X509v3 Issuer Alternative Name: 
                <EMPTY>

    Signature Algorithm: sha1WithRSAEncryption
         ad:49:00:dd:91:6f:2d:fd:47:03:ec:8e:49:04:7b:7e:5f:9f:
         63:34:57:10:57:1a:4a:64:76:a7:97:62:2d:e5:34:7e:ce:29:
         12:1b:23:da:4d:65:a9:07:67:f0:f4:fc:87:29:47:c4:7d:24:
         88:8b:90:5e:56:61:f6:4d:2e:8a:17:fa:dc:98:be:9d:e2:47:
         2d:6d:25:a9:04:9c:a6:12:5e:6b:a2:dd:d5:fd:0f:16:e3:d5:
         8f:9e:1d:02:06:7c:75:6e:51:7f:f4:ce:5b:99:9a:96:c4:67:
         0d:6a:2f:20:67:dd:d9:fa:b7:0a:6e:de:b6:ed:5d:01:8a:4c:
         04:15:19:4d:f5:08:95:7c:63:a6:fc:ab:70:7e:f2:31:b6:e0:
         1f:53:1d:66:72:fb:a5:56:d5:22:51:ae:7f:83:ad:9d:8b:89:
         a1:73:17:48:83:18:9b:3b:34:e3:82:66:8d:19:5c:82:f9:e1:
         a8:e1:84:b5:60:2f:67:7f:04:14:66:61:f8:79:e3:08:2e:27:
         70:b3:2f:66:f5:4c:d5:5b:f6:be:2b:1e:51:66:d7:69:69:91:
         77:44:de:96:c1:1f:e8:ab:d8:4d:7d:6a:45:85:5e:b4:d8:a7:
         99:69:e8:53:cf:d4:a3:0b:6b:05:88:2d:41:a4:86:8f:dc:22:
         4c:0a:f8:14:ab:b8:4d:49:00:44:b4:7f:84:2c:d2:c7:00:da:
         83:33:8e:7f:74:99:be:87:bb:8e:18:b3:e8:28:3e:05:29:a9:
         8a:8b:0a:ec:5b:79:b8:6b:e1:23:09:b8:55:78:49:9e:2e:55:
         d0:b2:a2:24:34:2f:54:ee:67:f5:04:ff:3e:05:fd:6d:36:70:
         90:72:f5:fd:16:ff:e8:5d:4e:57:fb:14:36:20:f5:53:df:77:
         d9:e7:6b:10:f0:b0:38:af:7a:22:60:26:65:18:a0:ef:8b:4f:
         7c:bd:b7:1f:b4:0c:50:1f:17:a2:3e:a7:ff:f7:b8:5d:ad:e0:
         45:4c:73:1d:a4:cc:15:e9:67:70:18:20:ac:ce:23:a1:94:2a:
         ef:e2:97:b7:44:e0:35:89:d4:50:e1:94:05:28:3a:a8:c8:39:
         bc:f0:bb:e1:af:12:0d:b7:91:2a:08:d4:4b:93:46:f1:17:1f:
         dc:19:37:e7:1b:05:df:f4:45:94:28:e9:31:ea:c2:3c:7f:f2:
         8e:f6:30:c6:33:a1:23:78:97:e2:45:0b:76:ee:3b:2c:07:74:
         53:ba:02:7d:9c:de:dd:e6:72:99:67:1e:ce:09:c3:a3:fb:66:
         82:0e:cc:c8:97:04:ae:66:85:56:05:80:d8:f6:5c:32:75:c4:
         88:97:af:ae:9f:10:de:5b
-----BEGIN CERTIFICATE-----
MIIGazCCBFOgAwIBAgIBATANBgkqhkiG9w0BAQUFADBkMQswCQYDVQQGEwJERTEQ
MA4GA1UECAwHR2VybWFueTEQMA4GA1UEBwwHSGFtYnVyZzEQMA4GA1UECgwHSEFX
VGVzdDEfMB0GCSqGSIb3DQEJARYQdGVzdG1haWxAdGVzdC5kZTAeFw0xMzEyMDEw
OTIzNDhaFw0yMzExMjkwOTIzNDhaMHExCzAJBgNVBAYTAkRFMRAwDgYDVQQIDAdH
ZXJtYW55MRAwDgYDVQQHDAdIYW1idXJnMRAwDgYDVQQKDAdIQVdUZXN0MQ8wDQYD
VQQDDAZTZXJnZWoxGzAZBgkqhkiG9w0BCQEWDHNlZmZAd2VyZi5kZTCCAiIwDQYJ
KoZIhvcNAQEBBQADggIPADCCAgoCggIBAOVhfv2NCYYVL++1RRpdYyoXkncAhkxz
hl6cabNU5WMR/B3xKqC8HMlBkQ38D0zdSAmiF2yuykOeus41JwW6wUREStvFqn+O
WEX8GuhxgBmc5eMJ+cBnWi+S+D/2hSmp2Tv22KU3uZ2iITgnO7bDFVPXh3QSWyKs
ZLNyqN7xkWFKg+dAhrd4riPTF+zpNxwukJriL84MMro4vlPxtJFjyFu9bNoP/22D
S0KztKdKq7jgXnEbj62lPNX3EMjwUO8LV8Ns5BkjRtwl+GrvlBt+RfsmkIGOVmVd
TVnXoVRDSIccbx+5d+WuwlbRFjLnahrOfeTjmeACFEa+BZIldyhtOFpLActlbQ6u
55dzzcCkyDlUblbjSCi/5Li7aMFph/kTT0u6DXE/COL/1T709ICTZTqYPQhVy0X1
VQ8uggsQa3ULKzXIQp8l16n0K0aiuzdfvCfT7rstmpDDe2lXCkGSeaC7WK29+Qmg
hbk5HzUJtYQhNiwi86OSv+DfsMpFt2LeYEe7PchOp8yXVlKkUuVcaKLbbKsBS15n
jHT3hZ0CiW4sNj9rjs3EFaBJo79TB52iXeoZ1kPZ2dwF5hcJc378oUbvN8hsz5Df
adoIst+oTeLQi3jTdKa3kfpnuf/mKtOFHuIEA37TDH7+aElZyolqwKSbpAudXNPN
zsUESS1qd5PlAgMBAAGjggEZMIIBFTAJBgNVHRMEAjAAMB0GA1UdDgQWBBTlp41D
zGH8NepygXTZXRWkNrKFBDCBlgYDVR0jBIGOMIGLgBRNNXf2dQQiSCvnxgXoenbN
2GU6saFopGYwZDELMAkGA1UEBhMCREUxEDAOBgNVBAgMB0dlcm1hbnkxEDAOBgNV
BAcMB0hhbWJ1cmcxEDAOBgNVBAoMB0hBV1Rlc3QxHzAdBgkqhkiG9w0BCQEWEHRl
c3RtYWlsQHRlc3QuZGWCCQCoyCTm8eRFDjAsBglghkgBhvhCAQ0EHxYdT3BlblNT
TCBHZW5lcmF0ZWQgQ2VydGlmaWNhdGUwFwYDVR0RBBAwDoEMc2VmZkB3ZXJmLmRl
MAkGA1UdEgQCMAAwDQYJKoZIhvcNAQEFBQADggIBAK1JAN2Rby39RwPsjkkEe35f
n2M0VxBXGkpkdqeXYi3lNH7OKRIbI9pNZakHZ/D0/IcpR8R9JIiLkF5WYfZNLooX
+tyYvp3iRy1tJakEnKYSXmui3dX9Dxbj1Y+eHQIGfHVuUX/0zluZmpbEZw1qLyBn
3dn6twpu3rbtXQGKTAQVGU31CJV8Y6b8q3B+8jG24B9THWZy+6VW1SJRrn+DrZ2L
iaFzF0iDGJs7NOOCZo0ZXIL54ajhhLVgL2d/BBRmYfh54wguJ3CzL2b1TNVb9r4r
HlFm12lpkXdE3pbBH+ir2E19akWFXrTYp5lp6FPP1KMLawWILUGkho/cIkwK+BSr
uE1JAES0f4Qs0scA2oMzjn90mb6Hu44Ys+goPgUpqYqLCuxbebhr4SMJuFV4SZ4u
VdCyoiQ0L1TuZ/UE/z4F/W02cJBy9f0W/+hdTlf7FDYg9VPfd9nnaxDwsDiveiJg
JmUYoO+LT3y9tx+0DFAfF6I+p//3uF2t4EVMcx2kzBXpZ3AYIKzOI6GUKu/il7dE
4DWJ1FDhlAUoOqjIObzwu+GvEg23kSoI1EuTRvEXH9wZN+cbBd/0RZQo6THqwjx/
8o72MMYzoSN4l+JFC3buOywHdFO6An2c3t3mcplnHs4Jw6P7ZoIOzMiXBK5mhVYF
gNj2XDJ1xIiXr66fEN5b
-----END CERTIFICATE-----
