Certificate:
    Data:
        Version: 3 (0x2)
        Serial Number: 2 (0x2)
    Signature Algorithm: sha1WithRSAEncryption
        Issuer: C=DE, ST=Germany, L=Hamburg, O=HAWTest/emailAddress=testmail@test.de
        Validity
            Not Before: Dec  1 13:30:45 2013 GMT
            Not After : Nov 29 13:30:45 2023 GMT
        Subject: C=DE, ST=Germany, L=Hamburg, O=HAWTest, CN=localhost/emailAddress=test@test.de
        Subject Public Key Info:
            Public Key Algorithm: rsaEncryption
                Public-Key: (4096 bit)
                Modulus:
                    00:e5:61:7e:fd:8d:09:86:15:2f:ef:b5:45:1a:5d:
                    63:2a:17:92:77:00:86:4c:73:86:5e:9c:69:b3:54:
                    e5:63:11:fc:1d:f1:2a:a0:bc:1c:c9:41:91:0d:fc:
                    0f:4c:dd:48:09:a2:17:6c:ae:ca:43:9e:ba:ce:35:
                    27:05:ba:c1:44:44:4a:db:c5:aa:7f:8e:58:45:fc:
                    1a:e8:71:80:19:9c:e5:e3:09:f9:c0:67:5a:2f:92:
                    f8:3f:f6:85:29:a9:d9:3b:f6:d8:a5:37:b9:9d:a2:
                    21:38:27:3b:b6:c3:15:53:d7:87:74:12:5b:22:ac:
                    64:b3:72:a8:de:f1:91:61:4a:83:e7:40:86:b7:78:
                    ae:23:d3:17:ec:e9:37:1c:2e:90:9a:e2:2f:ce:0c:
                    32:ba:38:be:53:f1:b4:91:63:c8:5b:bd:6c:da:0f:
                    ff:6d:83:4b:42:b3:b4:a7:4a:ab:b8:e0:5e:71:1b:
                    8f:ad:a5:3c:d5:f7:10:c8:f0:50:ef:0b:57:c3:6c:
                    e4:19:23:46:dc:25:f8:6a:ef:94:1b:7e:45:fb:26:
                    90:81:8e:56:65:5d:4d:59:d7:a1:54:43:48:87:1c:
                    6f:1f:b9:77:e5:ae:c2:56:d1:16:32:e7:6a:1a:ce:
                    7d:e4:e3:99:e0:02:14:46:be:05:92:25:77:28:6d:
                    38:5a:4b:01:cb:65:6d:0e:ae:e7:97:73:cd:c0:a4:
                    c8:39:54:6e:56:e3:48:28:bf:e4:b8:bb:68:c1:69:
                    87:f9:13:4f:4b:ba:0d:71:3f:08:e2:ff:d5:3e:f4:
                    f4:80:93:65:3a:98:3d:08:55:cb:45:f5:55:0f:2e:
                    82:0b:10:6b:75:0b:2b:35:c8:42:9f:25:d7:a9:f4:
                    2b:46:a2:bb:37:5f:bc:27:d3:ee:bb:2d:9a:90:c3:
                    7b:69:57:0a:41:92:79:a0:bb:58:ad:bd:f9:09:a0:
                    85:b9:39:1f:35:09:b5:84:21:36:2c:22:f3:a3:92:
                    bf:e0:df:b0:ca:45:b7:62:de:60:47:bb:3d:c8:4e:
                    a7:cc:97:56:52:a4:52:e5:5c:68:a2:db:6c:ab:01:
                    4b:5e:67:8c:74:f7:85:9d:02:89:6e:2c:36:3f:6b:
                    8e:cd:c4:15:a0:49:a3:bf:53:07:9d:a2:5d:ea:19:
                    d6:43:d9:d9:dc:05:e6:17:09:73:7e:fc:a1:46:ef:
                    37:c8:6c:cf:90:df:69:da:08:b2:df:a8:4d:e2:d0:
                    8b:78:d3:74:a6:b7:91:fa:67:b9:ff:e6:2a:d3:85:
                    1e:e2:04:03:7e:d3:0c:7e:fe:68:49:59:ca:89:6a:
                    c0:a4:9b:a4:0b:9d:5c:d3:cd:ce:c5:04:49:2d:6a:
                    77:93:e5
                Exponent: 65537 (0x10001)
        X509v3 extensions:
            X509v3 Basic Constraints: 
                CA:FALSE
            X509v3 Subject Key Identifier: 
                E5:A7:8D:43:CC:61:FC:35:EA:72:81:74:D9:5D:15:A4:36:B2:85:04
            X509v3 Authority Key Identifier: 
                keyid:4D:35:77:F6:75:04:22:48:2B:E7:C6:05:E8:7A:76:CD:D8:65:3A:B1
                DirName:/C=DE/ST=Germany/L=Hamburg/O=HAWTest/emailAddress=testmail@test.de
                serial:A8:C8:24:E6:F1:E4:45:0E

            Netscape Comment: 
                OpenSSL Generated Certificate
            X509v3 Subject Alternative Name: 
                email:test@test.de
            X509v3 Issuer Alternative Name: 
                <EMPTY>

    Signature Algorithm: sha1WithRSAEncryption
         aa:43:a3:d9:b9:f3:6b:3a:5c:7b:23:69:c2:13:5a:24:7a:e7:
         c1:11:d5:23:18:5c:6b:80:73:63:27:01:d6:5f:6d:e2:ba:46:
         fe:1d:ea:99:1b:54:94:b7:b2:16:9e:11:66:e2:1b:f6:53:44:
         a6:f0:07:45:4b:17:7b:e0:45:2d:8d:86:14:54:d3:31:e9:fa:
         ae:86:31:90:b4:62:e8:36:ba:06:3c:b4:83:8b:ee:97:fd:96:
         da:31:e7:0d:39:50:d0:67:89:c7:14:2a:8d:b3:f8:0a:f8:78:
         90:69:11:37:64:4f:e8:9b:1b:c2:67:1a:72:f1:15:db:80:3c:
         10:a5:46:41:de:75:ab:2f:8a:8a:98:6c:6a:35:44:0b:c6:aa:
         2c:91:d3:31:aa:d1:71:8c:40:13:a7:4d:90:d3:b8:19:49:75:
         1c:72:6a:95:fa:78:c7:19:b6:e6:b2:8d:49:3b:31:ee:c3:fe:
         53:5b:a3:73:70:a2:7f:4a:46:b7:92:9f:e1:c1:cb:7d:1d:6c:
         1a:53:e0:6b:d6:22:92:68:2b:8e:2e:f4:c0:3d:0b:ec:96:20:
         f4:fb:eb:b1:81:c8:27:ba:4b:84:83:52:a3:00:eb:6c:b0:06:
         7d:bf:c9:e0:1e:64:40:ba:3c:10:5d:53:48:96:de:d2:13:e7:
         f7:f2:7a:8a:31:40:69:11:ed:07:bf:a7:f4:47:e7:5b:f3:c1:
         4e:38:75:d4:24:38:b7:8f:a4:86:46:b4:f5:c4:0d:30:80:af:
         a0:5f:8d:e7:91:5c:c9:39:48:4e:cc:e6:f7:60:9d:90:67:04:
         2d:50:23:fa:f9:68:86:83:b0:e3:3b:db:13:d3:c4:21:db:e3:
         a0:c0:87:f3:8f:b7:63:d3:9d:f5:9b:25:70:17:95:ea:5b:7c:
         69:0f:7f:fa:49:d6:c8:bd:13:39:87:fe:1c:d6:ad:1e:2c:9d:
         56:8a:5d:a7:e8:41:db:8f:80:d8:0e:1f:2d:2e:43:05:ca:9f:
         5e:16:56:90:a6:97:f1:e1:61:84:17:16:f1:c8:3b:fc:3c:8f:
         2f:3c:ba:f7:81:b2:88:04:2c:2c:28:f0:7e:3f:a2:c6:c1:a9:
         1b:90:65:88:94:fe:62:68:d3:69:b5:5e:78:48:6c:89:6f:df:
         3d:df:e2:05:d6:75:5d:e2:3c:d5:d9:59:28:9b:28:17:32:a9:
         c9:42:cb:60:20:26:dd:63:3d:4e:f1:cd:c6:74:ba:05:96:5c:
         f9:01:d6:5e:23:42:bf:df:1a:8a:04:11:43:4f:09:8a:30:95:
         ab:68:08:ff:42:0f:fe:95:80:db:38:33:1d:eb:88:3e:89:bf:
         c9:7e:b3:e3:39:ad:0a:66
-----BEGIN CERTIFICATE-----
MIIGbjCCBFagAwIBAgIBAjANBgkqhkiG9w0BAQUFADBkMQswCQYDVQQGEwJERTEQ
MA4GA1UECAwHR2VybWFueTEQMA4GA1UEBwwHSGFtYnVyZzEQMA4GA1UECgwHSEFX
VGVzdDEfMB0GCSqGSIb3DQEJARYQdGVzdG1haWxAdGVzdC5kZTAeFw0xMzEyMDEx
MzMwNDVaFw0yMzExMjkxMzMwNDVaMHQxCzAJBgNVBAYTAkRFMRAwDgYDVQQIDAdH
ZXJtYW55MRAwDgYDVQQHDAdIYW1idXJnMRAwDgYDVQQKDAdIQVdUZXN0MRIwEAYD
VQQDDAlsb2NhbGhvc3QxGzAZBgkqhkiG9w0BCQEWDHRlc3RAdGVzdC5kZTCCAiIw
DQYJKoZIhvcNAQEBBQADggIPADCCAgoCggIBAOVhfv2NCYYVL++1RRpdYyoXkncA
hkxzhl6cabNU5WMR/B3xKqC8HMlBkQ38D0zdSAmiF2yuykOeus41JwW6wUREStvF
qn+OWEX8GuhxgBmc5eMJ+cBnWi+S+D/2hSmp2Tv22KU3uZ2iITgnO7bDFVPXh3QS
WyKsZLNyqN7xkWFKg+dAhrd4riPTF+zpNxwukJriL84MMro4vlPxtJFjyFu9bNoP
/22DS0KztKdKq7jgXnEbj62lPNX3EMjwUO8LV8Ns5BkjRtwl+GrvlBt+RfsmkIGO
VmVdTVnXoVRDSIccbx+5d+WuwlbRFjLnahrOfeTjmeACFEa+BZIldyhtOFpLActl
bQ6u55dzzcCkyDlUblbjSCi/5Li7aMFph/kTT0u6DXE/COL/1T709ICTZTqYPQhV
y0X1VQ8uggsQa3ULKzXIQp8l16n0K0aiuzdfvCfT7rstmpDDe2lXCkGSeaC7WK29
+Qmghbk5HzUJtYQhNiwi86OSv+DfsMpFt2LeYEe7PchOp8yXVlKkUuVcaKLbbKsB
S15njHT3hZ0CiW4sNj9rjs3EFaBJo79TB52iXeoZ1kPZ2dwF5hcJc378oUbvN8hs
z5DfadoIst+oTeLQi3jTdKa3kfpnuf/mKtOFHuIEA37TDH7+aElZyolqwKSbpAud
XNPNzsUESS1qd5PlAgMBAAGjggEZMIIBFTAJBgNVHRMEAjAAMB0GA1UdDgQWBBTl
p41DzGH8NepygXTZXRWkNrKFBDCBlgYDVR0jBIGOMIGLgBRNNXf2dQQiSCvnxgXo
enbN2GU6saFopGYwZDELMAkGA1UEBhMCREUxEDAOBgNVBAgMB0dlcm1hbnkxEDAO
BgNVBAcMB0hhbWJ1cmcxEDAOBgNVBAoMB0hBV1Rlc3QxHzAdBgkqhkiG9w0BCQEW
EHRlc3RtYWlsQHRlc3QuZGWCCQCoyCTm8eRFDjAsBglghkgBhvhCAQ0EHxYdT3Bl
blNTTCBHZW5lcmF0ZWQgQ2VydGlmaWNhdGUwFwYDVR0RBBAwDoEMdGVzdEB0ZXN0
LmRlMAkGA1UdEgQCMAAwDQYJKoZIhvcNAQEFBQADggIBAKpDo9m582s6XHsjacIT
WiR658ER1SMYXGuAc2MnAdZfbeK6Rv4d6pkbVJS3shaeEWbiG/ZTRKbwB0VLF3vg
RS2NhhRU0zHp+q6GMZC0Yug2ugY8tIOL7pf9ltox5w05UNBniccUKo2z+Ar4eJBp
ETdkT+ibG8JnGnLxFduAPBClRkHedasvioqYbGo1RAvGqiyR0zGq0XGMQBOnTZDT
uBlJdRxyapX6eMcZtuayjUk7Me7D/lNbo3Nwon9KRreSn+HBy30dbBpT4GvWIpJo
K44u9MA9C+yWIPT767GByCe6S4SDUqMA62ywBn2/yeAeZEC6PBBdU0iW3tIT5/fy
eooxQGkR7Qe/p/RH51vzwU44ddQkOLePpIZGtPXEDTCAr6BfjeeRXMk5SE7M5vdg
nZBnBC1QI/r5aIaDsOM72xPTxCHb46DAh/OPt2PTnfWbJXAXlepbfGkPf/pJ1si9
EzmH/hzWrR4snVaKXafoQduPgNgOHy0uQwXKn14WVpCml/HhYYQXFvHIO/w8jy88
uveBsogELCwo8H4/osbBqRuQZYiU/mJo02m1XnhIbIlv3z3f4gXWdV3iPNXZWSib
KBcyqclCy2AgJt1jPU7xzcZ0ugWWXPkB1l4jQr/fGooEEUNPCYowlatoCP9CD/6V
gNs4Mx3riD6Jv8l+s+M5rQpm
-----END CERTIFICATE-----
